target datalayout = "e-m:e-p270:32:32-p271:32:32-p272:64:64-i64:64-i128:128-f80:128-n8:16:32:64-S128"
target triple = "x86_64-pc-linux-gnu"

%"class.std::basic_string_view" = type { i64, ptr }
%"class.grpc_core::PolymorphicRefCount" = type { ptr }
%"class.grpc_core::RefCount" = type { %"struct.std::atomic" }
%"struct.std::atomic" = type { %"struct.std::__atomic_base" }
%"struct.std::__atomic_base" = type { i64 }
%struct.grpc_slice = type { ptr, %"union.grpc_slice::grpc_slice_data" }
%"union.grpc_slice::grpc_slice_data" = type { %"struct.grpc_slice::grpc_slice_data::grpc_slice_refcounted", [8 x i8] }
%"struct.grpc_slice::grpc_slice_data::grpc_slice_refcounted" = type { i64, ptr }
%"class.grpc_core::RefCountedPtr.305" = type { ptr }
%"class.grpc_event_engine::experimental::Slice" = type { %"class.grpc_event_engine::experimental::slice_detail::BaseSlice" }
%"class.grpc_event_engine::experimental::slice_detail::BaseSlice" = type { %struct.grpc_slice }
%"class.grpc_core::(anonymous namespace)::GrpcLb::TokenAndClientStatsArg" = type { %"class.grpc_core::RefCounted.360", %"class.grpc_event_engine::experimental::Slice", %"class.grpc_core::RefCountedPtr.305" }
%"class.grpc_core::RefCounted.360" = type { %"class.grpc_core::PolymorphicRefCount", %"class.grpc_core::RefCount" }
%class.anon.373 = type { i8 }
%"struct.grpc_slice::grpc_slice_data::grpc_slice_inlined" = type { i8, [23 x i8] }

; Function Attrs: mustprogress nounwind uwtable
define linkonce_odr noundef nonnull align 8 dereferenceable(32) ptr @_ZNK17grpc_event_engine12experimental12slice_detail9BaseSlice7c_sliceEv(ptr noundef nonnull align 8 dereferenceable(32) %0) #5 comdat align 2 {
  %2 = alloca ptr, align 8
  store ptr %0, ptr %2, align 8, !tbaa !893
  %3 = load ptr, ptr %2, align 8
  %4 = getelementptr inbounds nuw %"class.grpc_event_engine::experimental::slice_detail::BaseSlice", ptr %3, i32 0, i32 0
  ret ptr %4
}

; Function Attrs: mustprogress nounwind uwtable
define linkonce_odr noundef i32 @_ZNSt17basic_string_viewIcSt11char_traitsIcEE10_S_compareEmm(i64 noundef %0, i64 noundef %1) #5 comdat align 2 {
  %3 = alloca i32, align 4
  %4 = alloca i64, align 8
  %5 = alloca i64, align 8
  %6 = alloca i64, align 8
  %7 = alloca i32, align 4
  store i64 %0, ptr %4, align 8, !tbaa !72
  store i64 %1, ptr %5, align 8, !tbaa !72
  call void @llvm.lifetime.start.p0(i64 8, ptr %6) #3
  %8 = load i64, ptr %4, align 8, !tbaa !72
  %9 = load i64, ptr %5, align 8, !tbaa !72
  %10 = sub i64 %8, %9
  store i64 %10, ptr %6, align 8, !tbaa !72
  %11 = load i64, ptr %6, align 8, !tbaa !72
  %12 = icmp sgt i64 %11, 2147483647
  br i1 %12, label %13, label %14

13:                                               ; preds = %2
  store i32 2147483647, ptr %3, align 4
  store i32 1, ptr %7, align 4
  br label %21

14:                                               ; preds = %2
  %15 = load i64, ptr %6, align 8, !tbaa !72
  %16 = icmp slt i64 %15, -2147483648
  br i1 %16, label %17, label %18

17:                                               ; preds = %14
  store i32 -2147483648, ptr %3, align 4
  store i32 1, ptr %7, align 4
  br label %21

18:                                               ; preds = %14
  %19 = load i64, ptr %6, align 8, !tbaa !72
  %20 = trunc i64 %19 to i32
  store i32 %20, ptr %3, align 4
  store i32 1, ptr %7, align 4
  br label %21

21:                                               ; preds = %18, %17, %13
  call void @llvm.lifetime.end.p0(i64 8, ptr %6) #3
  %22 = load i32, ptr %3, align 4
  ret i32 %22
}

; Function Attrs: mustprogress nounwind uwtable
define linkonce_odr noundef i32 @_ZNSt11char_traitsIcE7compareEPKcS2_m(ptr noundef %0, ptr noundef %1, i64 noundef %2) #5 comdat align 2 {
  %4 = alloca i32, align 4
  %5 = alloca ptr, align 8
  %6 = alloca ptr, align 8
  %7 = alloca i64, align 8
  store ptr %0, ptr %5, align 8, !tbaa !26
  store ptr %1, ptr %6, align 8, !tbaa !26
  store i64 %2, ptr %7, align 8, !tbaa !72
  %8 = load i64, ptr %7, align 8, !tbaa !72
  %9 = icmp eq i64 %8, 0
  br i1 %9, label %10, label %11

10:                                               ; preds = %3
  store i32 0, ptr %4, align 4
  br label %16

11:                                               ; preds = %3
  %12 = load ptr, ptr %5, align 8, !tbaa !26
  %13 = load ptr, ptr %6, align 8, !tbaa !26
  %14 = load i64, ptr %7, align 8, !tbaa !72
  %15 = call i32 @memcmp(ptr noundef %12, ptr noundef %13, i64 noundef %14) #3
  store i32 %15, ptr %4, align 4
  br label %16

16:                                               ; preds = %11, %10
  %17 = load i32, ptr %4, align 4
  ret i32 %17
}

; Function Attrs: inlinehint mustprogress nounwind uwtable
define linkonce_odr noundef nonnull align 8 dereferenceable(8) ptr @_ZSt3minImERKT_S2_S2_(ptr noundef nonnull align 8 dereferenceable(8) %0, ptr noundef nonnull align 8 dereferenceable(8) %1) #11 comdat {
  %3 = alloca ptr, align 8
  %4 = alloca ptr, align 8
  %5 = alloca ptr, align 8
  store ptr %0, ptr %4, align 8, !tbaa !76
  store ptr %1, ptr %5, align 8, !tbaa !76
  %6 = load ptr, ptr %5, align 8, !tbaa !76
  %7 = load i64, ptr %6, align 8, !tbaa !72
  %8 = load ptr, ptr %4, align 8, !tbaa !76
  %9 = load i64, ptr %8, align 8, !tbaa !72
  %10 = icmp ult i64 %7, %9
  br i1 %10, label %11, label %13

11:                                               ; preds = %2
  %12 = load ptr, ptr %5, align 8, !tbaa !76
  store ptr %12, ptr %3, align 8
  br label %15

13:                                               ; preds = %2
  %14 = load ptr, ptr %4, align 8, !tbaa !76
  store ptr %14, ptr %3, align 8
  br label %15

15:                                               ; preds = %13, %11
  %16 = load ptr, ptr %3, align 8
  ret ptr %16
}

; Function Attrs: mustprogress nounwind uwtable
define linkonce_odr void @_ZNSt17basic_string_viewIcSt11char_traitsIcEEC2EPKcm(ptr noundef nonnull align 8 dereferenceable(16) %0, ptr noundef %1, i64 noundef %2) unnamed_addr #5 comdat align 2 {
  %4 = alloca ptr, align 8
  %5 = alloca ptr, align 8
  %6 = alloca i64, align 8
  store ptr %0, ptr %4, align 8, !tbaa !140
  store ptr %1, ptr %5, align 8, !tbaa !26
  store i64 %2, ptr %6, align 8, !tbaa !72
  %7 = load ptr, ptr %4, align 8
  %8 = getelementptr inbounds nuw %"class.std::basic_string_view", ptr %7, i32 0, i32 0
  %9 = load i64, ptr %6, align 8, !tbaa !72
  store i64 %9, ptr %8, align 8, !tbaa !142
  %10 = getelementptr inbounds nuw %"class.std::basic_string_view", ptr %7, i32 0, i32 1
  %11 = load ptr, ptr %5, align 8, !tbaa !26
  store ptr %11, ptr %10, align 8, !tbaa !144
  ret void
}

; Function Attrs: mustprogress nounwind uwtable
define linkonce_odr noundef i64 @_ZNK17grpc_event_engine12experimental12slice_detail9BaseSlice4sizeEv(ptr noundef nonnull align 8 dereferenceable(32) %0) #5 comdat align 2 {
  %2 = alloca ptr, align 8
  store ptr %0, ptr %2, align 8, !tbaa !893
  %3 = load ptr, ptr %2, align 8
  %4 = call noundef nonnull align 8 dereferenceable(32) ptr @_ZNK17grpc_event_engine12experimental12slice_detail9BaseSlice7c_sliceEv(ptr noundef nonnull align 8 dereferenceable(32) %3)
  %5 = getelementptr inbounds nuw %struct.grpc_slice, ptr %4, i32 0, i32 0
  %6 = load ptr, ptr %5, align 8, !tbaa !740
  %7 = icmp ne ptr %6, null
  br i1 %7, label %8, label %13

8:                                                ; preds = %1
  %9 = call noundef nonnull align 8 dereferenceable(32) ptr @_ZNK17grpc_event_engine12experimental12slice_detail9BaseSlice7c_sliceEv(ptr noundef nonnull align 8 dereferenceable(32) %3)
  %10 = getelementptr inbounds nuw %struct.grpc_slice, ptr %9, i32 0, i32 1
  %11 = getelementptr inbounds nuw %"struct.grpc_slice::grpc_slice_data::grpc_slice_refcounted", ptr %10, i32 0, i32 0
  %12 = load i64, ptr %11, align 8, !tbaa !108
  br label %19

13:                                               ; preds = %1
  %14 = call noundef nonnull align 8 dereferenceable(32) ptr @_ZNK17grpc_event_engine12experimental12slice_detail9BaseSlice7c_sliceEv(ptr noundef nonnull align 8 dereferenceable(32) %3)
  %15 = getelementptr inbounds nuw %struct.grpc_slice, ptr %14, i32 0, i32 1
  %16 = getelementptr inbounds nuw %"struct.grpc_slice::grpc_slice_data::grpc_slice_inlined", ptr %15, i32 0, i32 0
  %17 = load i8, ptr %16, align 8, !tbaa !108
  %18 = zext i8 %17 to i64
  br label %19

19:                                               ; preds = %13, %8
  %20 = phi i64 [ %12, %8 ], [ %18, %13 ]
  ret i64 %20
}

; Function Attrs: mustprogress uwtable
define linkonce_odr noundef ptr @_ZNK17grpc_event_engine12experimental12slice_detail9BaseSlice4dataEv(ptr noundef nonnull align 8 dereferenceable(32) %0) #4 comdat align 2 {
  %2 = alloca ptr, align 8
  store ptr %0, ptr %2, align 8, !tbaa !893
  %3 = load ptr, ptr %2, align 8
  %4 = call noundef nonnull align 8 dereferenceable(32) ptr @_ZNK17grpc_event_engine12experimental12slice_detail9BaseSlice7c_sliceEv(ptr noundef nonnull align 8 dereferenceable(32) %3)
  %5 = getelementptr inbounds nuw %struct.grpc_slice, ptr %4, i32 0, i32 0
  %6 = load ptr, ptr %5, align 8, !tbaa !740
  %7 = icmp ne ptr %6, null
  br i1 %7, label %8, label %13

8:                                                ; preds = %1
  %9 = call noundef nonnull align 8 dereferenceable(32) ptr @_ZNK17grpc_event_engine12experimental12slice_detail9BaseSlice7c_sliceEv(ptr noundef nonnull align 8 dereferenceable(32) %3)
  %10 = getelementptr inbounds nuw %struct.grpc_slice, ptr %9, i32 0, i32 1
  %11 = getelementptr inbounds nuw %"struct.grpc_slice::grpc_slice_data::grpc_slice_refcounted", ptr %10, i32 0, i32 1
  %12 = load ptr, ptr %11, align 8, !tbaa !108
  br label %18

13:                                               ; preds = %1
  %14 = call noundef nonnull align 8 dereferenceable(32) ptr @_ZNK17grpc_event_engine12experimental12slice_detail9BaseSlice7c_sliceEv(ptr noundef nonnull align 8 dereferenceable(32) %3)
  %15 = getelementptr inbounds nuw %struct.grpc_slice, ptr %14, i32 0, i32 1
  %16 = getelementptr inbounds nuw %"struct.grpc_slice::grpc_slice_data::grpc_slice_inlined", ptr %15, i32 0, i32 1
  %17 = getelementptr inbounds [23 x i8], ptr %16, i64 0, i64 0
  br label %18

18:                                               ; preds = %13, %8
  %19 = phi ptr [ %12, %8 ], [ %17, %13 ]
  ret ptr %19
}

; Function Attrs: mustprogress nounwind uwtable
define linkonce_odr noundef i32 @_ZN9grpc_core12QsortCompareIPNS_17GrpcLbClientStatsEEEiRKT_S5_(ptr noundef nonnull align 8 dereferenceable(8) %0, ptr noundef nonnull align 8 dereferenceable(8) %1) #5 comdat {
  %3 = alloca i32, align 4
  %4 = alloca ptr, align 8
  %5 = alloca ptr, align 8
  store ptr %0, ptr %4, align 8, !tbaa !945
  store ptr %1, ptr %5, align 8, !tbaa !945
  %6 = load ptr, ptr %4, align 8, !tbaa !945
  %7 = load ptr, ptr %6, align 8, !tbaa !751
  %8 = load ptr, ptr %5, align 8, !tbaa !945
  %9 = load ptr, ptr %8, align 8, !tbaa !751
  %10 = icmp ult ptr %7, %9
  br i1 %10, label %11, label %12

11:                                               ; preds = %2
  store i32 -1, ptr %3, align 4
  br label %20

12:                                               ; preds = %2
  %13 = load ptr, ptr %5, align 8, !tbaa !945
  %14 = load ptr, ptr %13, align 8, !tbaa !751
  %15 = load ptr, ptr %4, align 8, !tbaa !945
  %16 = load ptr, ptr %15, align 8, !tbaa !751
  %17 = icmp ult ptr %14, %16
  br i1 %17, label %18, label %19

18:                                               ; preds = %12
  store i32 1, ptr %3, align 4
  br label %20

19:                                               ; preds = %12
  store i32 0, ptr %3, align 4
  br label %20

20:                                               ; preds = %19, %18, %11
  %21 = load i32, ptr %3, align 4
  ret i32 %21
}

; Function Attrs: mustprogress nounwind uwtable
define linkonce_odr noundef ptr @_ZNK9grpc_core13RefCountedPtrINS_17GrpcLbClientStatsEE3getEv(ptr noundef nonnull align 8 dereferenceable(8) %0) #5 comdat align 2 {
  %2 = alloca ptr, align 8
  store ptr %0, ptr %2, align 8, !tbaa !741
  %3 = load ptr, ptr %2, align 8
  %4 = getelementptr inbounds nuw %"class.grpc_core::RefCountedPtr.305", ptr %3, i32 0, i32 0
  %5 = load ptr, ptr %4, align 8, !tbaa !743
  ret ptr %5
}

; Function Attrs: mustprogress nounwind uwtable
define linkonce_odr noundef i32 @_ZNKSt17basic_string_viewIcSt11char_traitsIcEE7compareES2_(ptr noundef nonnull align 8 dereferenceable(16) %0, i64 %1, ptr %2) #5 comdat align 2 {
  %4 = alloca %"class.std::basic_string_view", align 8
  %5 = alloca ptr, align 8
  %6 = alloca i64, align 8
  %7 = alloca i32, align 4
  %8 = getelementptr inbounds nuw { i64, ptr }, ptr %4, i32 0, i32 0
  store i64 %1, ptr %8, align 8
  %9 = getelementptr inbounds nuw { i64, ptr }, ptr %4, i32 0, i32 1
  store ptr %2, ptr %9, align 8
  store ptr %0, ptr %5, align 8, !tbaa !140
  %10 = load ptr, ptr %5, align 8
  call void @llvm.lifetime.start.p0(i64 8, ptr %6) #3
  %11 = getelementptr inbounds nuw %"class.std::basic_string_view", ptr %10, i32 0, i32 0
  %12 = getelementptr inbounds nuw %"class.std::basic_string_view", ptr %4, i32 0, i32 0
  %13 = call noundef nonnull align 8 dereferenceable(8) ptr @_ZSt3minImERKT_S2_S2_(ptr noundef nonnull align 8 dereferenceable(8) %11, ptr noundef nonnull align 8 dereferenceable(8) %12)
  %14 = load i64, ptr %13, align 8, !tbaa !72
  store i64 %14, ptr %6, align 8, !tbaa !72
  call void @llvm.lifetime.start.p0(i64 4, ptr %7) #3
  %15 = getelementptr inbounds nuw %"class.std::basic_string_view", ptr %10, i32 0, i32 1
  %16 = load ptr, ptr %15, align 8, !tbaa !144
  %17 = getelementptr inbounds nuw %"class.std::basic_string_view", ptr %4, i32 0, i32 1
  %18 = load ptr, ptr %17, align 8, !tbaa !144
  %19 = load i64, ptr %6, align 8, !tbaa !72
  %20 = call noundef i32 @_ZNSt11char_traitsIcE7compareEPKcS2_m(ptr noundef %16, ptr noundef %18, i64 noundef %19)
  store i32 %20, ptr %7, align 4, !tbaa !28
  %21 = load i32, ptr %7, align 4, !tbaa !28
  %22 = icmp eq i32 %21, 0
  br i1 %22, label %23, label %29

23:                                               ; preds = %3
  %24 = getelementptr inbounds nuw %"class.std::basic_string_view", ptr %10, i32 0, i32 0
  %25 = load i64, ptr %24, align 8, !tbaa !142
  %26 = getelementptr inbounds nuw %"class.std::basic_string_view", ptr %4, i32 0, i32 0
  %27 = load i64, ptr %26, align 8, !tbaa !142
  %28 = call noundef i32 @_ZNSt17basic_string_viewIcSt11char_traitsIcEE10_S_compareEmm(i64 noundef %25, i64 noundef %27) #3
  store i32 %28, ptr %7, align 4, !tbaa !28
  br label %29

29:                                               ; preds = %23, %3
  %30 = load i32, ptr %7, align 4, !tbaa !28
  call void @llvm.lifetime.end.p0(i64 4, ptr %7) #3
  call void @llvm.lifetime.end.p0(i64 8, ptr %6) #3
  ret i32 %30
}

; Function Attrs: mustprogress uwtable
define linkonce_odr { i64, ptr } @_ZNK17grpc_event_engine12experimental12slice_detail9BaseSlice14as_string_viewEv(ptr noundef nonnull align 8 dereferenceable(32) %0) #4 comdat align 2 {
  %2 = alloca %"class.std::basic_string_view", align 8
  %3 = alloca ptr, align 8
  store ptr %0, ptr %3, align 8, !tbaa !893
  %4 = load ptr, ptr %3, align 8
  %5 = call noundef ptr @_ZNK17grpc_event_engine12experimental12slice_detail9BaseSlice4dataEv(ptr noundef nonnull align 8 dereferenceable(32) %4)
  %6 = call noundef i64 @_ZNK17grpc_event_engine12experimental12slice_detail9BaseSlice4sizeEv(ptr noundef nonnull align 8 dereferenceable(32) %4)
  call void @_ZNSt17basic_string_viewIcSt11char_traitsIcEEC2EPKcm(ptr noundef nonnull align 8 dereferenceable(16) %2, ptr noundef %5, i64 noundef %6) #3
  %7 = load { i64, ptr }, ptr %2, align 8
  ret { i64, ptr } %7
}

; Function Attrs: mustprogress uwtable
define internal noundef i32 @_ZN9grpc_core12_GLOBAL__N_16GrpcLb22TokenAndClientStatsArg18ChannelArgsCompareEPKS2_S4_(ptr noundef %0, ptr noundef %1) #4 align 2 {
  %3 = alloca i32, align 4
  %4 = alloca ptr, align 8
  %5 = alloca ptr, align 8
  %6 = alloca i32, align 4
  %7 = alloca %"class.std::basic_string_view", align 8
  %8 = alloca %"class.std::basic_string_view", align 8
  %9 = alloca i32, align 4
  %10 = alloca ptr, align 8
  %11 = alloca ptr, align 8
  store ptr %0, ptr %4, align 8, !tbaa !887
  store ptr %1, ptr %5, align 8, !tbaa !887
  call void @llvm.lifetime.start.p0(i64 4, ptr %6) #3
  call void @llvm.lifetime.start.p0(i64 16, ptr %7) #3
  %12 = load ptr, ptr %4, align 8, !tbaa !887
  %13 = getelementptr inbounds nuw %"class.grpc_core::(anonymous namespace)::GrpcLb::TokenAndClientStatsArg", ptr %12, i32 0, i32 1
  %14 = call { i64, ptr } @_ZNK17grpc_event_engine12experimental12slice_detail9BaseSlice14as_string_viewEv(ptr noundef nonnull align 8 dereferenceable(32) %13)
  %15 = getelementptr inbounds nuw { i64, ptr }, ptr %7, i32 0, i32 0
  %16 = extractvalue { i64, ptr } %14, 0
  store i64 %16, ptr %15, align 8
  %17 = getelementptr inbounds nuw { i64, ptr }, ptr %7, i32 0, i32 1
  %18 = extractvalue { i64, ptr } %14, 1
  store ptr %18, ptr %17, align 8
  %19 = load ptr, ptr %5, align 8, !tbaa !887
  %20 = getelementptr inbounds nuw %"class.grpc_core::(anonymous namespace)::GrpcLb::TokenAndClientStatsArg", ptr %19, i32 0, i32 1
  %21 = call { i64, ptr } @_ZNK17grpc_event_engine12experimental12slice_detail9BaseSlice14as_string_viewEv(ptr noundef nonnull align 8 dereferenceable(32) %20)
  %22 = getelementptr inbounds nuw { i64, ptr }, ptr %8, i32 0, i32 0
  %23 = extractvalue { i64, ptr } %21, 0
  store i64 %23, ptr %22, align 8
  %24 = getelementptr inbounds nuw { i64, ptr }, ptr %8, i32 0, i32 1
  %25 = extractvalue { i64, ptr } %21, 1
  store ptr %25, ptr %24, align 8
  %26 = getelementptr inbounds nuw { i64, ptr }, ptr %8, i32 0, i32 0
  %27 = load i64, ptr %26, align 8
  %28 = getelementptr inbounds nuw { i64, ptr }, ptr %8, i32 0, i32 1
  %29 = load ptr, ptr %28, align 8
  %30 = call noundef i32 @_ZNKSt17basic_string_viewIcSt11char_traitsIcEE7compareES2_(ptr noundef nonnull align 8 dereferenceable(16) %7, i64 %27, ptr %29) #3
  call void @llvm.lifetime.end.p0(i64 16, ptr %7) #3
  store i32 %30, ptr %6, align 4, !tbaa !28
  %31 = load i32, ptr %6, align 4, !tbaa !28
  %32 = icmp ne i32 %31, 0
  br i1 %32, label %33, label %35

33:                                               ; preds = %2
  %34 = load i32, ptr %6, align 4, !tbaa !28
  store i32 %34, ptr %3, align 4
  store i32 1, ptr %9, align 4
  br label %43

35:                                               ; preds = %2
  call void @llvm.lifetime.start.p0(i64 8, ptr %10) #3
  %36 = load ptr, ptr %4, align 8, !tbaa !887
  %37 = getelementptr inbounds nuw %"class.grpc_core::(anonymous namespace)::GrpcLb::TokenAndClientStatsArg", ptr %36, i32 0, i32 2
  %38 = call noundef ptr @_ZNK9grpc_core13RefCountedPtrINS_17GrpcLbClientStatsEE3getEv(ptr noundef nonnull align 8 dereferenceable(8) %37)
  store ptr %38, ptr %10, align 8, !tbaa !751
  call void @llvm.lifetime.start.p0(i64 8, ptr %11) #3
  %39 = load ptr, ptr %5, align 8, !tbaa !887
  %40 = getelementptr inbounds nuw %"class.grpc_core::(anonymous namespace)::GrpcLb::TokenAndClientStatsArg", ptr %39, i32 0, i32 2
  %41 = call noundef ptr @_ZNK9grpc_core13RefCountedPtrINS_17GrpcLbClientStatsEE3getEv(ptr noundef nonnull align 8 dereferenceable(8) %40)
  store ptr %41, ptr %11, align 8, !tbaa !751
  %42 = call noundef i32 @_ZN9grpc_core12QsortCompareIPNS_17GrpcLbClientStatsEEEiRKT_S5_(ptr noundef nonnull align 8 dereferenceable(8) %10, ptr noundef nonnull align 8 dereferenceable(8) %11)
  store i32 %42, ptr %3, align 4
  call void @llvm.lifetime.end.p0(i64 8, ptr %11) #3
  call void @llvm.lifetime.end.p0(i64 8, ptr %10) #3
  store i32 1, ptr %9, align 4
  br label %43

43:                                               ; preds = %35, %33
  call void @llvm.lifetime.end.p0(i64 4, ptr %6) #3
  %44 = load i32, ptr %3, align 4
  ret i32 %44
}

; Function Attrs: inlinehint mustprogress uwtable
define internal noundef i32 @_ZZN9grpc_core20ChannelArgTypeTraitsINS_12_GLOBAL__N_16GrpcLb22TokenAndClientStatsArgEvE6VTableEvENKUlPvS5_E_clES5_S5_(ptr noundef nonnull align 1 dereferenceable(1) %0, ptr noundef %1, ptr noundef %2) #7 align 2 {
  %4 = alloca ptr, align 8
  %5 = alloca ptr, align 8
  %6 = alloca ptr, align 8
  store ptr %0, ptr %4, align 8, !tbaa !39
  store ptr %1, ptr %5, align 8, !tbaa !39
  store ptr %2, ptr %6, align 8, !tbaa !39
  %7 = load ptr, ptr %5, align 8, !tbaa !39
  %8 = load ptr, ptr %6, align 8, !tbaa !39
  %9 = call noundef i32 @_ZN9grpc_core12_GLOBAL__N_16GrpcLb22TokenAndClientStatsArg18ChannelArgsCompareEPKS2_S4_(ptr noundef %7, ptr noundef %8)
  ret i32 %9
}

; Function Attrs: inlinehint mustprogress uwtable
define internal noundef i32 @_ZZN9grpc_core20ChannelArgTypeTraitsINS_12_GLOBAL__N_16GrpcLb22TokenAndClientStatsArgEvE6VTableEvENUlPvS5_E_8__invokeES5_S5_(ptr noundef %0, ptr noundef %1) #7 align 2 {
  %3 = alloca ptr, align 8
  %4 = alloca ptr, align 8
  %5 = alloca %class.anon.373, align 1
  store ptr %0, ptr %3, align 8, !tbaa !39
  store ptr %1, ptr %4, align 8, !tbaa !39
  %6 = load ptr, ptr %3, align 8, !tbaa !39
  %7 = load ptr, ptr %4, align 8, !tbaa !39
  %8 = call noundef i32 @_ZZN9grpc_core20ChannelArgTypeTraitsINS_12_GLOBAL__N_16GrpcLb22TokenAndClientStatsArgEvE6VTableEvENKUlPvS5_E_clES5_S5_(ptr noundef nonnull align 1 dereferenceable(1) %5, ptr noundef %6, ptr noundef %7)
  ret i32 %8
}