; Function Attrs: inlinehint mustprogress nofree nounwind willreturn memory(read, inaccessiblemem: none) uwtable
define internal noundef i32 @_ZZN9grpc_core20ChannelArgTypeTraitsINS_12_GLOBAL__N_16GrpcLb22TokenAndClientStatsArgEvE6VTableEvENUlPvS5_E_8__invokeES5_S5_(ptr noundef readonly captures(none) %0, ptr noundef readonly captures(none) %1) #32 align 2 {
  %3 = getelementptr inbounds nuw i8, ptr %0, i64 16
  %4 = load ptr, ptr %3, align 8, !tbaa !370
  %.not.i.i.i.i = icmp eq ptr %4, null
  %5 = getelementptr inbounds nuw i8, ptr %0, i64 24
  %6 = load i64, ptr %5, align 8
  %7 = and i64 %6, 255
  %8 = select i1 %.not.i.i.i.i, i64 %7, i64 %6
  %9 = getelementptr inbounds nuw i8, ptr %1, i64 16
  %10 = load ptr, ptr %9, align 8, !tbaa !370
  %.not.i.i7.i.i = icmp eq ptr %10, null
  %11 = getelementptr inbounds nuw i8, ptr %1, i64 24
  %12 = load i64, ptr %11, align 8
  %13 = and i64 %12, 255
  %14 = select i1 %.not.i.i7.i.i, i64 %13, i64 %12
  %.sroa.speculated.i.i.i = tail call i64 @llvm.umin.i64(i64 %14, i64 %8)
  %15 = icmp eq i64 %.sroa.speculated.i.i.i, 0
  br i1 %15, label %_ZNKSt17basic_string_viewIcSt11char_traitsIcEE7compareES2_.exit.i.i, label %_ZNSt11char_traitsIcE7compareEPKcS2_m.exit.i.i.i

_ZNSt11char_traitsIcE7compareEPKcS2_m.exit.i.i.i: ; preds = %2
  %16 = getelementptr inbounds nuw i8, ptr %1, i64 25
  %17 = getelementptr inbounds nuw i8, ptr %1, i64 32
  %18 = load ptr, ptr %17, align 8
  %19 = select i1 %.not.i.i7.i.i, ptr %16, ptr %18
  %20 = getelementptr inbounds nuw i8, ptr %0, i64 25
  %21 = getelementptr inbounds nuw i8, ptr %0, i64 32
  %22 = load ptr, ptr %21, align 8
  %23 = select i1 %.not.i.i.i.i, ptr %20, ptr %22
  %24 = tail call i32 @memcmp(ptr noundef %23, ptr noundef %19, i64 noundef %.sroa.speculated.i.i.i) #42
  %25 = icmp eq i32 %24, 0
  br i1 %25, label %_ZNKSt17basic_string_viewIcSt11char_traitsIcEE7compareES2_.exit.i.i, label %_ZZN9grpc_core20ChannelArgTypeTraitsINS_12_GLOBAL__N_16GrpcLb22TokenAndClientStatsArgEvE6VTableEvENKUlPvS5_E_clES5_S5_.exit

_ZNKSt17basic_string_viewIcSt11char_traitsIcEE7compareES2_.exit.i.i: ; preds = %_ZNSt11char_traitsIcE7compareEPKcS2_m.exit.i.i.i, %2
  %26 = sub i64 %8, %14
  %spec.select7.i.i.i.i = tail call i64 @llvm.smax.i64(i64 %26, i64 -2147483648)
  %.08.i.i.i.i = tail call i64 @llvm.smin.i64(i64 %spec.select7.i.i.i.i, i64 2147483647)
  %.0.i4.i.i.i = trunc nsw i64 %.08.i.i.i.i to i32
  %.not.i.i = icmp eq i64 %8, %14
  br i1 %.not.i.i, label %27, label %_ZZN9grpc_core20ChannelArgTypeTraitsINS_12_GLOBAL__N_16GrpcLb22TokenAndClientStatsArgEvE6VTableEvENKUlPvS5_E_clES5_S5_.exit

27:                                               ; preds = %_ZNKSt17basic_string_viewIcSt11char_traitsIcEE7compareES2_.exit.i.i
  %28 = getelementptr inbounds nuw i8, ptr %0, i64 48
  %29 = load ptr, ptr %28, align 8, !tbaa !252
  %30 = getelementptr inbounds nuw i8, ptr %1, i64 48
  %31 = load ptr, ptr %30, align 8, !tbaa !252
  %32 = icmp ult ptr %29, %31
  %33 = icmp ult ptr %31, %29
  %..i.i.i = zext i1 %33 to i32
  %.0.i10.i.i = select i1 %32, i32 -1, i32 %..i.i.i
  br label %_ZZN9grpc_core20ChannelArgTypeTraitsINS_12_GLOBAL__N_16GrpcLb22TokenAndClientStatsArgEvE6VTableEvENKUlPvS5_E_clES5_S5_.exit

_ZZN9grpc_core20ChannelArgTypeTraitsINS_12_GLOBAL__N_16GrpcLb22TokenAndClientStatsArgEvE6VTableEvENKUlPvS5_E_clES5_S5_.exit: ; preds = %_ZNSt11char_traitsIcE7compareEPKcS2_m.exit.i.i.i, %_ZNKSt17basic_string_viewIcSt11char_traitsIcEE7compareES2_.exit.i.i, %27
  %.0.i.i = phi i32 [ %.0.i10.i.i, %27 ], [ %.0.i4.i.i.i, %_ZNKSt17basic_string_viewIcSt11char_traitsIcEE7compareES2_.exit.i.i ], [ %24, %_ZNSt11char_traitsIcE7compareEPKcS2_m.exit.i.i.i ]
  ret i32 %.0.i.i
}